target datalayout = "e-m:e-p270:32:32-p271:32:32-p272:64:64-i64:64-i128:128-f80:128-n8:16:32:64-S128"
target triple = "x86_64-pc-linux-gnu"

%struct.ForEachState = type { ptr, i32 }
%struct.List = type { i32, i32, i32, ptr, [0 x %union.ListCell] }
%union.ListCell = type { ptr }

@.str.44 = private unnamed_addr constant [39 x i8] c"Invalid list syntax in parameter \22%s\22.\00", align 1
@.str.45 = private unnamed_addr constant [16 x i8] c"debug_io_direct\00", align 1
@GUC_check_errdetail_string = external global ptr, align 8
@.str.46 = private unnamed_addr constant [5 x i8] c"data\00", align 1
@.str.47 = private unnamed_addr constant [4 x i8] c"wal\00", align 1
@.str.48 = private unnamed_addr constant [9 x i8] c"wal_init\00", align 1
@.str.49 = private unnamed_addr constant [21 x i8] c"Invalid option \22%s\22.\00", align 1

; Function Attrs: nounwind uwtable
define dso_local zeroext i1 @check_debug_io_direct(ptr noundef %0, ptr noundef %1, i32 noundef %2) #0 {
  %4 = alloca i1, align 1
  %5 = alloca ptr, align 8
  %6 = alloca ptr, align 8
  %7 = alloca i32, align 4
  %8 = alloca i8, align 1
  %9 = alloca i32, align 4
  %10 = alloca ptr, align 8
  %11 = alloca ptr, align 8
  %12 = alloca ptr, align 8
  %13 = alloca i32, align 4
  %14 = alloca %struct.ForEachState, align 8
  %15 = alloca ptr, align 8
  store ptr %0, ptr %5, align 8
  store ptr %1, ptr %6, align 8
  store i32 %2, ptr %7, align 4
  call void @llvm.lifetime.start.p0(i64 1, ptr %8) #14
  store i8 1, ptr %8, align 1
  call void @llvm.lifetime.start.p0(i64 4, ptr %9) #14
  call void @llvm.lifetime.start.p0(i64 8, ptr %10) #14
  call void @llvm.lifetime.start.p0(i64 8, ptr %11) #14
  call void @llvm.lifetime.start.p0(i64 8, ptr %12) #14
  %16 = load ptr, ptr %5, align 8
  %17 = load ptr, ptr %16, align 8
  %18 = call ptr @pstrdup(ptr noundef %17)
  store ptr %18, ptr %12, align 8
  %19 = load ptr, ptr %12, align 8
  %20 = call zeroext i1 @SplitGUCList(ptr noundef %19, i8 noundef signext 44, ptr noundef %10)
  br i1 %20, label %27, label %21

21:                                               ; preds = %3
  %22 = call ptr @__errno_location() #15
  %23 = load i32, ptr %22, align 4
  call void @pre_format_elog_string(i32 noundef %23, ptr noundef null)
  %24 = call ptr (ptr, ...) @format_elog_string(ptr noundef @.str.44, ptr noundef @.str.45)
  store ptr %24, ptr @GUC_check_errdetail_string, align 8
  %25 = load ptr, ptr %12, align 8
  call void @pfree(ptr noundef %25)
  %26 = load ptr, ptr %10, align 8
  call void @list_free(ptr noundef %26)
  store i1 false, ptr %4, align 1
  store i32 1, ptr %13, align 4
  br label %113

27:                                               ; preds = %3
  store i32 0, ptr %9, align 4
  call void @llvm.lifetime.start.p0(i64 16, ptr %14) #14
  %28 = getelementptr inbounds nuw %struct.ForEachState, ptr %14, i32 0, i32 0
  %29 = load ptr, ptr %10, align 8
  store ptr %29, ptr %28, align 8
  %30 = getelementptr inbounds nuw %struct.ForEachState, ptr %14, i32 0, i32 1
  store i32 0, ptr %30, align 8
  %31 = getelementptr i8, ptr %14, i64 12
  call void @llvm.memset.p0.i64(ptr align 4 %31, i8 0, i64 4, i1 false)
  br label %32

32:                                               ; preds = %92, %27
  %33 = getelementptr inbounds nuw %struct.ForEachState, ptr %14, i32 0, i32 0
  %34 = load ptr, ptr %33, align 8
  %35 = icmp ne ptr %34, null
  br i1 %35, label %36, label %53

36:                                               ; preds = %32
  %37 = getelementptr inbounds nuw %struct.ForEachState, ptr %14, i32 0, i32 1
  %38 = load i32, ptr %37, align 8
  %39 = getelementptr inbounds nuw %struct.ForEachState, ptr %14, i32 0, i32 0
  %40 = load ptr, ptr %39, align 8
  %41 = getelementptr inbounds nuw %struct.List, ptr %40, i32 0, i32 1
  %42 = load i32, ptr %41, align 4
  %43 = icmp slt i32 %38, %42
  br i1 %43, label %44, label %53

44:                                               ; preds = %36
  %45 = getelementptr inbounds nuw %struct.ForEachState, ptr %14, i32 0, i32 0
  %46 = load ptr, ptr %45, align 8
  %47 = getelementptr inbounds nuw %struct.List, ptr %46, i32 0, i32 3
  %48 = load ptr, ptr %47, align 8
  %49 = getelementptr inbounds nuw %struct.ForEachState, ptr %14, i32 0, i32 1
  %50 = load i32, ptr %49, align 8
  %51 = sext i32 %50 to i64
  %52 = getelementptr inbounds %union.ListCell, ptr %48, i64 %51
  store ptr %52, ptr %11, align 8
  br label %54

53:                                               ; preds = %36, %32
  store ptr null, ptr %11, align 8
  br label %54

54:                                               ; preds = %53, %44
  %55 = phi i32 [ 1, %44 ], [ 0, %53 ]
  %56 = icmp ne i32 %55, 0
  br i1 %56, label %58, label %57

57:                                               ; preds = %54
  store i32 2, ptr %13, align 4
  br label %96

58:                                               ; preds = %54
  call void @llvm.lifetime.start.p0(i64 8, ptr %15) #14
  %59 = load ptr, ptr %11, align 8
  %60 = load ptr, ptr %59, align 8
  store ptr %60, ptr %15, align 8
  %61 = load ptr, ptr %15, align 8
  %62 = call i32 @pg_strcasecmp(ptr noundef %61, ptr noundef @.str.46)
  %63 = icmp eq i32 %62, 0
  br i1 %63, label %64, label %67

64:                                               ; preds = %58
  %65 = load i32, ptr %9, align 4
  %66 = or i32 %65, 1
  store i32 %66, ptr %9, align 4
  br label %88

67:                                               ; preds = %58
  %68 = load ptr, ptr %15, align 8
  %69 = call i32 @pg_strcasecmp(ptr noundef %68, ptr noundef @.str.47)
  %70 = icmp eq i32 %69, 0
  br i1 %70, label %71, label %74

71:                                               ; preds = %67
  %72 = load i32, ptr %9, align 4
  %73 = or i32 %72, 2
  store i32 %73, ptr %9, align 4
  br label %87

74:                                               ; preds = %67
  %75 = load ptr, ptr %15, align 8
  %76 = call i32 @pg_strcasecmp(ptr noundef %75, ptr noundef @.str.48)
  %77 = icmp eq i32 %76, 0
  br i1 %77, label %78, label %81

78:                                               ; preds = %74
  %79 = load i32, ptr %9, align 4
  %80 = or i32 %79, 4
  store i32 %80, ptr %9, align 4
  br label %86

81:                                               ; preds = %74
  %82 = call ptr @__errno_location() #15
  %83 = load i32, ptr %82, align 4
  call void @pre_format_elog_string(i32 noundef %83, ptr noundef null)
  %84 = load ptr, ptr %15, align 8
  %85 = call ptr (ptr, ...) @format_elog_string(ptr noundef @.str.49, ptr noundef %84)
  store ptr %85, ptr @GUC_check_errdetail_string, align 8
  store i8 0, ptr %8, align 1
  store i32 2, ptr %13, align 4
  br label %89

86:                                               ; preds = %78
  br label %87

87:                                               ; preds = %86, %71
  br label %88

88:                                               ; preds = %87, %64
  store i32 0, ptr %13, align 4
  br label %89

89:                                               ; preds = %88, %81
  call void @llvm.lifetime.end.p0(i64 8, ptr %15) #14
  %90 = load i32, ptr %13, align 4
  switch i32 %90, label %96 [
    i32 0, label %91
  ]

91:                                               ; preds = %89
  br label %92

92:                                               ; preds = %91
  %93 = getelementptr inbounds nuw %struct.ForEachState, ptr %14, i32 0, i32 1
  %94 = load i32, ptr %93, align 8
  %95 = add i32 %94, 1
  store i32 %95, ptr %93, align 8
  br label %32, !llvm.loop !30

96:                                               ; preds = %89, %57
  call void @llvm.lifetime.end.p0(i64 16, ptr %14) #14
  br label %97

97:                                               ; preds = %96
  %98 = load ptr, ptr %12, align 8
  call void @pfree(ptr noundef %98)
  %99 = load ptr, ptr %10, align 8
  call void @list_free(ptr noundef %99)
  %100 = load i8, ptr %8, align 1, !range !4, !noundef !5
  %101 = trunc i8 %100 to i1
  br i1 %101, label %105, label %102

102:                                              ; preds = %97
  %103 = load i8, ptr %8, align 1, !range !4, !noundef !5
  %104 = trunc i8 %103 to i1
  store i1 %104, ptr %4, align 1
  store i32 1, ptr %13, align 4
  br label %113

105:                                              ; preds = %97
  %106 = call ptr @guc_malloc(i32 noundef 21, i64 noundef 4)
  %107 = load ptr, ptr %6, align 8
  store ptr %106, ptr %107, align 8
  %108 = load i32, ptr %9, align 4
  %109 = load ptr, ptr %6, align 8
  %110 = load ptr, ptr %109, align 8
  store i32 %108, ptr %110, align 4
  %111 = load i8, ptr %8, align 1, !range !4, !noundef !5
  %112 = trunc i8 %111 to i1
  store i1 %112, ptr %4, align 1
  store i32 1, ptr %13, align 4
  br label %113

113:                                              ; preds = %105, %102, %21
  call void @llvm.lifetime.end.p0(i64 8, ptr %12) #14
  call void @llvm.lifetime.end.p0(i64 8, ptr %11) #14
  call void @llvm.lifetime.end.p0(i64 8, ptr %10) #14
  call void @llvm.lifetime.end.p0(i64 4, ptr %9) #14
  call void @llvm.lifetime.end.p0(i64 1, ptr %8) #14
  %114 = load i1, ptr %4, align 1
  ret i1 %114
}