; Function Attrs: nounwind uwtable
define dso_local noundef zeroext i1 @check_debug_io_direct(ptr noundef readonly captures(none) %0, ptr noundef writeonly captures(none) %1, i32 noundef %2) local_unnamed_addr #0 {
  %4 = alloca ptr, align 8
  call void @llvm.lifetime.start.p0(i64 8, ptr nonnull %4) #25
  %5 = load ptr, ptr %0, align 8
  %6 = tail call ptr @pstrdup(ptr noundef %5) #25
  %7 = call zeroext i1 @SplitGUCList(ptr noundef %6, i8 noundef signext 44, ptr noundef nonnull %4) #25
  br i1 %7, label %13, label %8

8:                                                ; preds = %3
  %9 = tail call ptr @__errno_location() #26
  %10 = load i32, ptr %9, align 4
  call void @pre_format_elog_string(i32 noundef %10, ptr noundef null) #25
  %11 = call ptr (ptr, ...) @format_elog_string(ptr noundef nonnull @.str.44, ptr noundef nonnull @.str.45) #25
  store ptr %11, ptr @GUC_check_errdetail_string, align 8
  call void @pfree(ptr noundef %6) #25
  %12 = load ptr, ptr %4, align 8
  call void @list_free(ptr noundef %12) #25
  br label %41

13:                                               ; preds = %3
  %14 = load ptr, ptr %4, align 8
  %.not = icmp eq ptr %14, null
  br i1 %.not, label %.thread, label %.lr.ph

.lr.ph:                                           ; preds = %13
  %15 = getelementptr inbounds nuw i8, ptr %14, i64 4
  %16 = getelementptr inbounds nuw i8, ptr %14, i64 16
  %17 = load i32, ptr %15, align 4
  %18 = icmp sgt i32 %17, 0
  br i1 %18, label %.lr.ph49, label %.thread

.lr.ph49:                                         ; preds = %.lr.ph, %34
  %indvars.iv = phi i64 [ %indvars.iv.next, %34 ], [ 0, %.lr.ph ]
  %.0244148 = phi i32 [ %35, %34 ], [ 0, %.lr.ph ]
  %19 = load ptr, ptr %16, align 8
  %20 = getelementptr inbounds nuw %union.ListCell, ptr %19, i64 %indvars.iv
  %21 = load ptr, ptr %20, align 8
  %22 = call i32 @pg_strcasecmp(ptr noundef %21, ptr noundef nonnull @.str.46) #25
  %23 = icmp eq i32 %22, 0
  br i1 %23, label %34, label %24

24:                                               ; preds = %.lr.ph49
  %25 = call i32 @pg_strcasecmp(ptr noundef %21, ptr noundef nonnull @.str.47) #25
  %26 = icmp eq i32 %25, 0
  br i1 %26, label %34, label %27

27:                                               ; preds = %24
  %28 = call i32 @pg_strcasecmp(ptr noundef %21, ptr noundef nonnull @.str.48) #25
  %29 = icmp eq i32 %28, 0
  br i1 %29, label %34, label %.critedge

.critedge:                                        ; preds = %27
  %30 = tail call ptr @__errno_location() #26
  %31 = load i32, ptr %30, align 4
  call void @pre_format_elog_string(i32 noundef %31, ptr noundef null) #25
  %32 = call ptr (ptr, ...) @format_elog_string(ptr noundef nonnull @.str.49, ptr noundef %21) #25
  store ptr %32, ptr @GUC_check_errdetail_string, align 8
  call void @pfree(ptr noundef %6) #25
  %33 = load ptr, ptr %4, align 8
  call void @list_free(ptr noundef %33) #25
  br label %41

34:                                               ; preds = %27, %24, %.lr.ph49
  %.sink = phi i32 [ 1, %.lr.ph49 ], [ 2, %24 ], [ 4, %27 ]
  %35 = or i32 %.0244148, %.sink
  %indvars.iv.next = add nuw nsw i64 %indvars.iv, 1
  %36 = load i32, ptr %15, align 4
  %37 = sext i32 %36 to i64
  %38 = icmp slt i64 %indvars.iv.next, %37
  br i1 %38, label %.lr.ph49, label %.thread

.thread:                                          ; preds = %34, %.lr.ph, %13
  %.024.lcssa = phi i32 [ 0, %13 ], [ 0, %.lr.ph ], [ %35, %34 ]
  call void @pfree(ptr noundef %6) #25
  %39 = load ptr, ptr %4, align 8
  call void @list_free(ptr noundef %39) #25
  %40 = call ptr @guc_malloc(i32 noundef 21, i64 noundef 4) #25
  store ptr %40, ptr %1, align 8
  store i32 %.024.lcssa, ptr %40, align 4
  br label %41

41:                                               ; preds = %.critedge, %.thread, %8
  %.0 = phi i1 [ true, %.thread ], [ false, %8 ], [ false, %.critedge ]
  call void @llvm.lifetime.end.p0(i64 8, ptr nonnull %4) #25
  ret i1 %.0
}